target datalayout = "e-m:e-p270:32:32-p271:32:32-p272:64:64-i64:64-i128:128-f80:128-n8:16:32:64-S128"
target triple = "x86_64-pc-linux-gnu"

@.str.16 = private unnamed_addr constant [3 x i8] c": \00", align 1
@hf_bgp_update_mpls_label = internal global i32 0, align 4
@hf_bgp_update_mpls_label_value = internal global i32 0, align 4
@ett_bgp_mpls_labels = internal global i32 0, align 4
@.str.1848 = private unnamed_addr constant [5 x i8] c"%u%s\00", align 1
@.str.1849 = private unnamed_addr constant [2 x i8] c",\00", align 1
@.str.1850 = private unnamed_addr constant [10 x i8] c" (bottom)\00", align 1
@.str.1897 = private unnamed_addr constant [13 x i8] c" (withdrawn)\00", align 1
@.str.1898 = private unnamed_addr constant [35 x i8] c" (BOGUS: Bottom of Stack NOT set!)\00", align 1

; Function Attrs: null_pointer_is_valid sspstrong uwtable
define internal i32 @decode_MPLS_stack_tree(ptr noundef %0, i32 noundef %1, ptr noundef %2) #0 {
  %4 = alloca i32, align 4
  %5 = alloca ptr, align 8
  %6 = alloca i32, align 4
  %7 = alloca ptr, align 8
  %8 = alloca i32, align 4
  %9 = alloca i32, align 4
  %10 = alloca ptr, align 8
  %11 = alloca ptr, align 8
  %12 = alloca ptr, align 8
  %13 = alloca i32, align 4
  store ptr %0, ptr %5, align 8
  store i32 %1, ptr %6, align 4
  store ptr %2, ptr %7, align 8
  call void @llvm.lifetime.start.p0(i64 4, ptr %8) #6
  store i32 0, ptr %8, align 4
  call void @llvm.lifetime.start.p0(i64 4, ptr %9) #6
  call void @llvm.lifetime.start.p0(i64 8, ptr %10) #6
  store ptr null, ptr %10, align 8
  call void @llvm.lifetime.start.p0(i64 8, ptr %11) #6
  store ptr null, ptr %11, align 8
  call void @llvm.lifetime.start.p0(i64 8, ptr %12) #6
  store ptr null, ptr %12, align 8
  %14 = load i32, ptr %6, align 4
  store i32 %14, ptr %9, align 4
  store i32 0, ptr %8, align 4
  %15 = load ptr, ptr %7, align 8
  %16 = load i32, ptr @hf_bgp_update_mpls_label, align 4
  %17 = load ptr, ptr %5, align 8
  %18 = load i32, ptr %6, align 4
  %19 = call ptr @proto_tree_add_item(ptr noundef %15, i32 noundef %16, ptr noundef %17, i32 noundef %18, i32 noundef 3, i32 noundef 0)
  store ptr %19, ptr %11, align 8
  %20 = load ptr, ptr %11, align 8
  call void (ptr, ptr, ...) @proto_item_append_text(ptr noundef %20, ptr noundef @.str.16)
  %21 = load ptr, ptr %11, align 8
  %22 = load i32, ptr @ett_bgp_mpls_labels, align 4
  %23 = call ptr @proto_item_add_subtree(ptr noundef %21, i32 noundef %22)
  store ptr %23, ptr %10, align 8
  br label %24

24:                                               ; preds = %71, %3
  %25 = load i32, ptr %8, align 4
  %26 = and i32 %25, 1
  %27 = icmp eq i32 %26, 0
  br i1 %27, label %28, label %72

28:                                               ; preds = %24
  %29 = load ptr, ptr %5, align 8
  %30 = load i32, ptr %9, align 4
  %31 = call i32 @tvb_get_ntoh24(ptr noundef %29, i32 noundef %30)
  store i32 %31, ptr %8, align 4
  %32 = load ptr, ptr %10, align 8
  %33 = load i32, ptr @hf_bgp_update_mpls_label_value, align 4
  %34 = load ptr, ptr %5, align 8
  %35 = load i32, ptr %9, align 4
  %36 = call ptr @proto_tree_add_item(ptr noundef %32, i32 noundef %33, ptr noundef %34, i32 noundef %35, i32 noundef 3, i32 noundef 0)
  store ptr %36, ptr %12, align 8
  %37 = load i32, ptr %9, align 4
  %38 = load i32, ptr %6, align 4
  %39 = icmp eq i32 %37, %38
  br i1 %39, label %40, label %49

40:                                               ; preds = %28
  %41 = load i32, ptr %8, align 4
  %42 = icmp eq i32 %41, 0
  br i1 %42, label %46, label %43

43:                                               ; preds = %40
  %44 = load i32, ptr %8, align 4
  %45 = icmp eq i32 %44, 8388608
  br i1 %45, label %46, label %49

46:                                               ; preds = %43, %40
  %47 = load ptr, ptr %11, align 8
  call void (ptr, ptr, ...) @proto_item_append_text(ptr noundef %47, ptr noundef @.str.1897)
  %48 = load ptr, ptr %12, align 8
  call void (ptr, ptr, ...) @proto_item_append_text(ptr noundef %48, ptr noundef @.str.1897)
  store i32 1, ptr %4, align 4
  store i32 1, ptr %13, align 4
  br label %81

49:                                               ; preds = %43, %28
  %50 = load ptr, ptr %11, align 8
  %51 = load i32, ptr %8, align 4
  %52 = lshr i32 %51, 4
  %53 = load i32, ptr %8, align 4
  %54 = and i32 %53, 1
  %55 = icmp eq i32 %54, 0
  %56 = select i1 %55, ptr @.str.1849, ptr @.str.1850
  call void (ptr, ptr, ...) @proto_item_append_text(ptr noundef %50, ptr noundef @.str.1848, i32 noundef %52, ptr noundef %56)
  %57 = load ptr, ptr %12, align 8
  %58 = load i32, ptr %8, align 4
  %59 = lshr i32 %58, 4
  %60 = load i32, ptr %8, align 4
  %61 = and i32 %60, 1
  %62 = icmp eq i32 %61, 0
  %63 = select i1 %62, ptr @.str.1849, ptr @.str.1850
  call void (ptr, ptr, ...) @proto_item_append_text(ptr noundef %57, ptr noundef @.str.1848, i32 noundef %59, ptr noundef %63)
  %64 = load i32, ptr %9, align 4
  %65 = add i32 %64, 3
  store i32 %65, ptr %9, align 4
  %66 = load i32, ptr %8, align 4
  %67 = and i32 %66, 1
  %68 = icmp eq i32 %67, 0
  br i1 %68, label %69, label %71

69:                                               ; preds = %49
  %70 = load ptr, ptr %11, align 8
  call void (ptr, ptr, ...) @proto_item_append_text(ptr noundef %70, ptr noundef @.str.1898)
  br label %72

71:                                               ; preds = %49
  br label %24, !llvm.loop !66

72:                                               ; preds = %69, %24
  %73 = load ptr, ptr %11, align 8
  %74 = load i32, ptr %9, align 4
  %75 = load i32, ptr %6, align 4
  %76 = sub i32 %74, %75
  call void @proto_item_set_len(ptr noundef %73, i32 noundef %76)
  %77 = load i32, ptr %9, align 4
  %78 = load i32, ptr %6, align 4
  %79 = sub i32 %77, %78
  %80 = sdiv i32 %79, 3
  store i32 %80, ptr %4, align 4
  store i32 1, ptr %13, align 4
  br label %81

81:                                               ; preds = %72, %46
  call void @llvm.lifetime.end.p0(i64 8, ptr %12) #6
  call void @llvm.lifetime.end.p0(i64 8, ptr %11) #6
  call void @llvm.lifetime.end.p0(i64 8, ptr %10) #6
  call void @llvm.lifetime.end.p0(i64 4, ptr %9) #6
  call void @llvm.lifetime.end.p0(i64 4, ptr %8) #6
  %82 = load i32, ptr %4, align 4
  ret i32 %82
}