; Function Attrs: null_pointer_is_valid sspstrong uwtable
define internal fastcc void @decode_MPLS_stack_tree(ptr noundef %0, i32 noundef %1, ptr noundef %2) unnamed_addr #0 {
  %4 = load i32, ptr @hf_bgp_update_mpls_label, align 4
  %5 = tail call ptr @proto_tree_add_item(ptr noundef %2, i32 noundef %4, ptr noundef %0, i32 noundef %1, i32 noundef 3, i32 noundef 0)
  tail call void (ptr, ptr, ...) @proto_item_append_text(ptr noundef %5, ptr noundef nonnull @.str.16)
  %6 = load i32, ptr @ett_bgp_mpls_labels, align 4
  %7 = tail call ptr @proto_item_add_subtree(ptr noundef %5, i32 noundef %6)
  br label %8

8:                                                ; preds = %18, %3
  %.033 = phi i32 [ 0, %3 ], [ %12, %18 ]
  %.0 = phi i32 [ %1, %3 ], [ %23, %18 ]
  %9 = and i32 %.033, 1
  %10 = icmp eq i32 %9, 0
  br i1 %10, label %11, label %.loopexit

11:                                               ; preds = %8
  %12 = tail call i32 @tvb_get_ntoh24(ptr noundef %0, i32 noundef %.0)
  %13 = load i32, ptr @hf_bgp_update_mpls_label_value, align 4
  %14 = tail call ptr @proto_tree_add_item(ptr noundef %7, i32 noundef %13, ptr noundef %0, i32 noundef %.0, i32 noundef 3, i32 noundef 0)
  %15 = icmp eq i32 %.0, %1
  %16 = and i32 %12, -8388609
  %or.cond = icmp eq i32 %16, 0
  %or.cond35 = select i1 %15, i1 %or.cond, i1 false
  br i1 %or.cond35, label %17, label %18

17:                                               ; preds = %11
  tail call void (ptr, ptr, ...) @proto_item_append_text(ptr noundef %5, ptr noundef nonnull @.str.1897)
  tail call void (ptr, ptr, ...) @proto_item_append_text(ptr noundef %14, ptr noundef nonnull @.str.1897)
  br label %26

18:                                               ; preds = %11
  %19 = lshr i32 %12, 4
  %20 = and i32 %12, 1
  %21 = icmp eq i32 %20, 0
  %22 = select i1 %21, ptr @.str.1849, ptr @.str.1850
  tail call void (ptr, ptr, ...) @proto_item_append_text(ptr noundef %5, ptr noundef nonnull @.str.1848, i32 noundef %19, ptr noundef nonnull %22)
  tail call void (ptr, ptr, ...) @proto_item_append_text(ptr noundef %14, ptr noundef nonnull @.str.1848, i32 noundef %19, ptr noundef nonnull %22)
  %23 = add i32 %.0, 3
  br i1 %21, label %24, label %8, !llvm.loop !77

24:                                               ; preds = %18
  tail call void (ptr, ptr, ...) @proto_item_append_text(ptr noundef %5, ptr noundef nonnull @.str.1898)
  br label %.loopexit

.loopexit:                                        ; preds = %8, %24
  %.1 = phi i32 [ %23, %24 ], [ %.0, %8 ]
  %25 = sub i32 %.1, %1
  tail call void @proto_item_set_len(ptr noundef %5, i32 noundef %25)
  br label %26

26:                                               ; preds = %.loopexit, %17
  ret void
}